target datalayout = "e-m:e-p270:32:32-p271:32:32-p272:64:64-i64:64-i128:128-f80:128-n8:16:32:64-S128"
target triple = "x86_64-pc-linux-gnu"

%struct.ps_prochandle_ops = type { ptr, ptr, ptr, ptr }
%struct.Elf64_Ehdr = type { [16 x i8], i16, i16, i32, i64, i64, i64, i32, i16, i16, i16, i16, i16, i16 }
%struct.ps_prochandle = type { ptr, i32, i32, ptr, ptr, i32, ptr, ptr }
%struct.core_data = type { i32, i32, i32, i32, i64, i64, i64, ptr, ptr, ptr }

@.str = private unnamed_addr constant [30 x i8] c"can't allocate ps_prochandle\0A\00", align 1
@core_ops = internal global %struct.ps_prochandle_ops { ptr @core_release, ptr @core_read_data, ptr @core_write_data, ptr @core_get_lwp_regs }, align 8
@.str.1 = private unnamed_addr constant [22 x i8] c"can't open core file\0A\00", align 1
@.str.2 = private unnamed_addr constant [43 x i8] c"core file is not a valid ELF ET_CORE file\0A\00", align 1
@.str.3 = private unnamed_addr constant [28 x i8] c"can't open executable file\0A\00", align 1
@.str.4 = private unnamed_addr constant [41 x i8] c"executable file is not a valid ELF file\0A\00", align 1
@.str.5 = private unnamed_addr constant [24 x i8] c"exec_base_addr = 0x%lx\0A\00", align 1

; Function Attrs: nounwind uwtable
define ptr @Pgrab_core(ptr noundef %0, ptr noundef %1) #0 {
  %3 = alloca ptr, align 8
  %4 = alloca ptr, align 8
  %5 = alloca ptr, align 8
  %6 = alloca %struct.Elf64_Ehdr, align 8
  %7 = alloca %struct.Elf64_Ehdr, align 8
  %8 = alloca ptr, align 8
  %9 = alloca i64, align 8
  store ptr %0, ptr %4, align 8
  store ptr %1, ptr %5, align 8
  %10 = call noalias ptr @calloc(i64 noundef 1, i64 noundef 56) #7
  store ptr %10, ptr %8, align 8
  %11 = load ptr, ptr %8, align 8
  %12 = icmp eq ptr %11, null
  br i1 %12, label %13, label %14

13:                                               ; preds = %2
  call void (ptr, ...) @print_debug(ptr noundef @.str)
  store ptr null, ptr %3, align 8
  br label %134

14:                                               ; preds = %2
  %15 = call noalias ptr @calloc(i64 noundef 1, i64 noundef 64) #7
  %16 = load ptr, ptr %8, align 8
  %17 = getelementptr inbounds %struct.ps_prochandle, ptr %16, i32 0, i32 7
  store ptr %15, ptr %17, align 8
  %18 = icmp eq ptr %15, null
  br i1 %18, label %19, label %21

19:                                               ; preds = %14
  %20 = load ptr, ptr %8, align 8
  call void @free(ptr noundef %20) #8
  call void (ptr, ...) @print_debug(ptr noundef @.str)
  store ptr null, ptr %3, align 8
  br label %134

21:                                               ; preds = %14
  %22 = load ptr, ptr %8, align 8
  %23 = getelementptr inbounds %struct.ps_prochandle, ptr %22, i32 0, i32 0
  store ptr @core_ops, ptr %23, align 8
  %24 = load ptr, ptr %8, align 8
  %25 = getelementptr inbounds %struct.ps_prochandle, ptr %24, i32 0, i32 7
  %26 = load ptr, ptr %25, align 8
  %27 = getelementptr inbounds %struct.core_data, ptr %26, i32 0, i32 0
  store i32 -1, ptr %27, align 8
  %28 = load ptr, ptr %8, align 8
  %29 = getelementptr inbounds %struct.ps_prochandle, ptr %28, i32 0, i32 7
  %30 = load ptr, ptr %29, align 8
  %31 = getelementptr inbounds %struct.core_data, ptr %30, i32 0, i32 1
  store i32 -1, ptr %31, align 4
  %32 = load ptr, ptr %8, align 8
  %33 = getelementptr inbounds %struct.ps_prochandle, ptr %32, i32 0, i32 7
  %34 = load ptr, ptr %33, align 8
  %35 = getelementptr inbounds %struct.core_data, ptr %34, i32 0, i32 2
  store i32 -1, ptr %35, align 8
  %36 = load ptr, ptr %5, align 8
  %37 = call i32 (ptr, i32, ...) @open64(ptr noundef %36, i32 noundef 0)
  %38 = load ptr, ptr %8, align 8
  %39 = getelementptr inbounds %struct.ps_prochandle, ptr %38, i32 0, i32 7
  %40 = load ptr, ptr %39, align 8
  %41 = getelementptr inbounds %struct.core_data, ptr %40, i32 0, i32 0
  store i32 %37, ptr %41, align 8
  %42 = icmp slt i32 %37, 0
  br i1 %42, label %43, label %44

43:                                               ; preds = %21
  call void (ptr, ...) @print_debug(ptr noundef @.str.1)
  br label %132

44:                                               ; preds = %21
  %45 = load ptr, ptr %8, align 8
  %46 = getelementptr inbounds %struct.ps_prochandle, ptr %45, i32 0, i32 7
  %47 = load ptr, ptr %46, align 8
  %48 = getelementptr inbounds %struct.core_data, ptr %47, i32 0, i32 0
  %49 = load i32, ptr %48, align 8
  %50 = call i32 @read_elf_header(i32 noundef %49, ptr noundef %6)
  %51 = icmp ne i32 %50, 1
  br i1 %51, label %57, label %52

52:                                               ; preds = %44
  %53 = getelementptr inbounds %struct.Elf64_Ehdr, ptr %6, i32 0, i32 1
  %54 = load i16, ptr %53, align 8
  %55 = zext i16 %54 to i32
  %56 = icmp ne i32 %55, 4
  br i1 %56, label %57, label %58

57:                                               ; preds = %52, %44
  call void (ptr, ...) @print_debug(ptr noundef @.str.2)
  br label %132

58:                                               ; preds = %52
  %59 = load ptr, ptr %4, align 8
  %60 = call i32 (ptr, i32, ...) @open64(ptr noundef %59, i32 noundef 0)
  %61 = load ptr, ptr %8, align 8
  %62 = getelementptr inbounds %struct.ps_prochandle, ptr %61, i32 0, i32 7
  %63 = load ptr, ptr %62, align 8
  %64 = getelementptr inbounds %struct.core_data, ptr %63, i32 0, i32 1
  store i32 %60, ptr %64, align 4
  %65 = icmp slt i32 %60, 0
  br i1 %65, label %66, label %67

66:                                               ; preds = %58
  call void (ptr, ...) @print_debug(ptr noundef @.str.3)
  br label %132

67:                                               ; preds = %58
  %68 = load ptr, ptr %8, align 8
  %69 = getelementptr inbounds %struct.ps_prochandle, ptr %68, i32 0, i32 7
  %70 = load ptr, ptr %69, align 8
  %71 = getelementptr inbounds %struct.core_data, ptr %70, i32 0, i32 1
  %72 = load i32, ptr %71, align 4
  %73 = call i32 @read_elf_header(i32 noundef %72, ptr noundef %7)
  %74 = icmp ne i32 %73, 1
  br i1 %74, label %85, label %75

75:                                               ; preds = %67
  %76 = getelementptr inbounds %struct.Elf64_Ehdr, ptr %7, i32 0, i32 1
  %77 = load i16, ptr %76, align 8
  %78 = zext i16 %77 to i32
  %79 = icmp ne i32 %78, 2
  br i1 %79, label %80, label %86

80:                                               ; preds = %75
  %81 = getelementptr inbounds %struct.Elf64_Ehdr, ptr %7, i32 0, i32 1
  %82 = load i16, ptr %81, align 8
  %83 = zext i16 %82 to i32
  %84 = icmp ne i32 %83, 3
  br i1 %84, label %85, label %86

85:                                               ; preds = %80, %67
  call void (ptr, ...) @print_debug(ptr noundef @.str.4)
  br label %132

86:                                               ; preds = %80, %75
  %87 = load ptr, ptr %8, align 8
  %88 = call i32 @read_core_segments(ptr noundef %87, ptr noundef %6)
  %89 = icmp ne i32 %88, 1
  br i1 %89, label %90, label %91

90:                                               ; preds = %86
  br label %132

91:                                               ; preds = %86
  %92 = load ptr, ptr %8, align 8
  %93 = call i64 @read_exec_segments(ptr noundef %92, ptr noundef %7)
  store i64 %93, ptr %9, align 8
  %94 = load i64, ptr %9, align 8
  %95 = icmp eq i64 %94, 0
  br i1 %95, label %96, label %97

96:                                               ; preds = %91
  br label %132

97:                                               ; preds = %91
  %98 = load i64, ptr %9, align 8
  call void (ptr, ...) @print_debug(ptr noundef @.str.5, i64 noundef %98)
  %99 = load ptr, ptr %8, align 8
  %100 = load ptr, ptr %4, align 8
  %101 = load ptr, ptr %8, align 8
  %102 = getelementptr inbounds %struct.ps_prochandle, ptr %101, i32 0, i32 7
  %103 = load ptr, ptr %102, align 8
  %104 = getelementptr inbounds %struct.core_data, ptr %103, i32 0, i32 1
  %105 = load i32, ptr %104, align 4
  %106 = load i64, ptr %9, align 8
  %107 = call ptr @add_lib_info_fd(ptr noundef %99, ptr noundef %100, i32 noundef %105, i64 noundef %106)
  %108 = icmp eq ptr %107, null
  br i1 %108, label %109, label %110

109:                                              ; preds = %97
  br label %132

110:                                              ; preds = %97
  %111 = load ptr, ptr %8, align 8
  %112 = call i32 @sort_map_array(ptr noundef %111)
  %113 = icmp ne i32 %112, 1
  br i1 %113, label %114, label %115

114:                                              ; preds = %110
  br label %132

115:                                              ; preds = %110
  %116 = load ptr, ptr %8, align 8
  %117 = call i32 @read_shared_lib_info(ptr noundef %116)
  %118 = icmp ne i32 %117, 1
  br i1 %118, label %119, label %120

119:                                              ; preds = %115
  br label %132

120:                                              ; preds = %115
  %121 = load ptr, ptr %8, align 8
  %122 = call i32 @sort_map_array(ptr noundef %121)
  %123 = icmp ne i32 %122, 1
  br i1 %123, label %124, label %125

124:                                              ; preds = %120
  br label %132

125:                                              ; preds = %120
  %126 = load ptr, ptr %8, align 8
  %127 = call i32 @init_classsharing_workaround(ptr noundef %126)
  %128 = icmp ne i32 %127, 1
  br i1 %128, label %129, label %130

129:                                              ; preds = %125
  br label %132

130:                                              ; preds = %125
  %131 = load ptr, ptr %8, align 8
  store ptr %131, ptr %3, align 8
  br label %134

132:                                              ; preds = %129, %124, %119, %114, %109, %96, %90, %85, %66, %57, %43
  %133 = load ptr, ptr %8, align 8
  call void @Prelease(ptr noundef %133)
  store ptr null, ptr %3, align 8
  br label %134

134:                                              ; preds = %132, %130, %19, %13
  %135 = load ptr, ptr %3, align 8
  ret ptr %135
}