; Function Attrs: nounwind uwtable
define noundef ptr @Pgrab_core(ptr noundef %0, ptr nocapture noundef readonly %1) local_unnamed_addr #0 {
  %3 = alloca %struct.Elf64_Ehdr, align 8
  %4 = alloca %struct.Elf64_Ehdr, align 8
  %5 = tail call noalias dereferenceable_or_null(56) ptr @calloc(i64 noundef 1, i64 noundef 56) #14
  %6 = icmp eq ptr %5, null
  br i1 %6, label %7, label %8

7:                                                ; preds = %2
  tail call void (ptr, ...) @print_debug(ptr noundef nonnull @.str) #15
  br label %62

8:                                                ; preds = %2
  %9 = tail call noalias dereferenceable_or_null(64) ptr @calloc(i64 noundef 1, i64 noundef 64) #14
  %10 = getelementptr inbounds i8, ptr %5, i64 48
  store ptr %9, ptr %10, align 8
  %11 = icmp eq ptr %9, null
  br i1 %11, label %12, label %13

12:                                               ; preds = %8
  tail call void @free(ptr noundef nonnull %5) #15
  tail call void (ptr, ...) @print_debug(ptr noundef nonnull @.str) #15
  br label %62

13:                                               ; preds = %8
  store ptr @core_ops, ptr %5, align 8
  store i32 -1, ptr %9, align 8
  %14 = getelementptr inbounds i8, ptr %9, i64 4
  store i32 -1, ptr %14, align 4
  %15 = getelementptr inbounds i8, ptr %9, i64 8
  store i32 -1, ptr %15, align 8
  %16 = tail call i32 (ptr, i32, ...) @open64(ptr noundef %1, i32 noundef 0) #15
  store i32 %16, ptr %9, align 8
  %17 = icmp slt i32 %16, 0
  br i1 %17, label %18, label %19

18:                                               ; preds = %13
  tail call void (ptr, ...) @print_debug(ptr noundef nonnull @.str.1) #15
  br label %61

19:                                               ; preds = %13
  %20 = call i32 @read_elf_header(i32 noundef %16, ptr noundef nonnull %3) #15
  %21 = icmp ne i32 %20, 1
  %22 = getelementptr inbounds i8, ptr %3, i64 16
  %23 = load i16, ptr %22, align 8
  %24 = icmp ne i16 %23, 4
  %or.cond = select i1 %21, i1 true, i1 %24
  br i1 %or.cond, label %25, label %26

25:                                               ; preds = %19
  call void (ptr, ...) @print_debug(ptr noundef nonnull @.str.2) #15
  br label %61

26:                                               ; preds = %19
  %27 = call i32 (ptr, i32, ...) @open64(ptr noundef %0, i32 noundef 0) #15
  %28 = load ptr, ptr %10, align 8
  %29 = getelementptr inbounds i8, ptr %28, i64 4
  store i32 %27, ptr %29, align 4
  %30 = icmp slt i32 %27, 0
  br i1 %30, label %31, label %32

31:                                               ; preds = %26
  call void (ptr, ...) @print_debug(ptr noundef nonnull @.str.3) #15
  br label %61

32:                                               ; preds = %26
  %33 = load ptr, ptr %10, align 8
  %34 = getelementptr inbounds i8, ptr %33, i64 4
  %35 = load i32, ptr %34, align 4
  %36 = call i32 @read_elf_header(i32 noundef %35, ptr noundef nonnull %4) #15
  %.not = icmp eq i32 %36, 1
  br i1 %.not, label %37, label %41

37:                                               ; preds = %32
  %38 = getelementptr inbounds i8, ptr %4, i64 16
  %39 = load i16, ptr %38, align 8
  %40 = add i16 %39, -4
  %or.cond7 = icmp ult i16 %40, -2
  br i1 %or.cond7, label %41, label %42

41:                                               ; preds = %37, %32
  call void (ptr, ...) @print_debug(ptr noundef nonnull @.str.4) #15
  br label %61

42:                                               ; preds = %37
  %43 = call fastcc i32 @read_core_segments(ptr noundef nonnull %5, ptr noundef nonnull %3)
  %.not36.not = icmp eq i32 %43, 0
  br i1 %.not36.not, label %61, label %44

44:                                               ; preds = %42
  %45 = call fastcc i64 @read_exec_segments(ptr noundef nonnull %5, ptr noundef nonnull %4)
  %46 = icmp eq i64 %45, 0
  br i1 %46, label %61, label %47

47:                                               ; preds = %44
  call void (ptr, ...) @print_debug(ptr noundef nonnull @.str.5, i64 noundef %45) #15
  %48 = load ptr, ptr %10, align 8
  %49 = getelementptr inbounds i8, ptr %48, i64 4
  %50 = load i32, ptr %49, align 4
  %51 = call ptr @add_lib_info_fd(ptr noundef nonnull %5, ptr noundef %0, i32 noundef %50, i64 noundef %45) #15
  %52 = icmp eq ptr %51, null
  br i1 %52, label %61, label %53

53:                                               ; preds = %47
  %54 = call fastcc i32 @sort_map_array(ptr noundef nonnull %5)
  %.not37.not = icmp eq i32 %54, 0
  br i1 %.not37.not, label %61, label %55

55:                                               ; preds = %53
  %56 = call fastcc i32 @read_shared_lib_info(ptr noundef nonnull %5)
  %.not38.not = icmp eq i32 %56, 0
  br i1 %.not38.not, label %61, label %57

57:                                               ; preds = %55
  %58 = call fastcc i32 @sort_map_array(ptr noundef nonnull %5)
  %.not39.not = icmp eq i32 %58, 0
  br i1 %.not39.not, label %61, label %59

59:                                               ; preds = %57
  %60 = call i32 @init_classsharing_workaround(ptr noundef nonnull %5) #15
  %.not40 = icmp eq i32 %60, 1
  br i1 %.not40, label %62, label %61

61:                                               ; preds = %59, %57, %55, %53, %47, %44, %42, %41, %31, %25, %18
  call void @Prelease(ptr noundef nonnull %5) #15
  br label %62

62:                                               ; preds = %59, %61, %12, %7
  %.0 = phi ptr [ null, %7 ], [ null, %12 ], [ null, %61 ], [ %5, %59 ]
  ret ptr %.0
}